; Function Attrs: mustprogress nofree norecurse nosync nounwind willreturn memory(readwrite, inaccessiblemem: none) uwtable
define hidden void @_ZN6hermes12RegisterFile12killRegisterENS_8RegisterE(ptr nocapture noundef nonnull readonly align 8 dereferenceable(24) %this, i32 %reg.coerce) local_unnamed_addr #4 align 2 {
entry:
  %rem.i = and i32 %reg.coerce, 63
  %sh_prom.i = zext nneg i32 %rem.i to i64
  %shl.i = shl nuw i64 1, %sh_prom.i
  %div2.i = lshr i32 %reg.coerce, 6
  %conv.i = zext nneg i32 %div2.i to i64
  %0 = load ptr, ptr %this, align 8
  %arrayidx.i.i = getelementptr inbounds i64, ptr %0, i64 %conv.i
  %1 = load i64, ptr %arrayidx.i.i, align 8
  %or.i = or i64 %1, %shl.i
  store i64 %or.i, ptr %arrayidx.i.i, align 8
  ret void
}